target datalayout = "e-m:e-p270:32:32-p271:32:32-p272:64:64-i64:64-i128:128-f80:128-n8:16:32:64-S128"
target triple = "x86_64-pc-linux-gnu"

%struct.FormData_pg_subscription = type { i32, i32, i64, %struct.nameData, i32, i8, i8, i8, i8, i8, i8, i8, i8 }
%struct.nameData = type { [64 x i8] }
%struct.HeapTupleData = type { i32, %struct.ItemPointerData, i32, ptr }
%struct.ItemPointerData = type { %struct.BlockIdData, i16 }
%struct.BlockIdData = type { i16, i16 }
%struct.HeapTupleHeaderData = type { %union.anon, %struct.ItemPointerData, i16, i16, i8, [0 x i8] }
%union.anon = type { %struct.HeapTupleFields }
%struct.HeapTupleFields = type { i32, i32, %union.anon.0 }
%union.anon.0 = type { i32 }

@.str.4 = private unnamed_addr constant [19 x i8] c"subscriptioncmds.c\00", align 1
@MyDatabaseId = external global i32, align 4
@.str.5 = private unnamed_addr constant [42 x i8] c"password_required=false is superuser-only\00", align 1
@.str.6 = private unnamed_addr constant [111 x i8] c"Subscriptions with the password_required option set to false may only be created or modified by the superuser.\00", align 1
@object_access_hook = external global ptr, align 8
@__func__.AlterSubscriptionOwner_internal = private unnamed_addr constant [32 x i8] c"AlterSubscriptionOwner_internal\00", align 1

; Function Attrs: inlinehint nounwind uwtable
define internal ptr @GETSTRUCT(ptr noundef %0) #5 {
  %2 = alloca ptr, align 8
  store ptr %0, ptr %2, align 8
  %3 = load ptr, ptr %2, align 8
  %4 = getelementptr inbounds nuw %struct.HeapTupleData, ptr %3, i32 0, i32 3
  %5 = load ptr, ptr %4, align 8
  %6 = load ptr, ptr %2, align 8
  %7 = getelementptr inbounds nuw %struct.HeapTupleData, ptr %6, i32 0, i32 3
  %8 = load ptr, ptr %7, align 8
  %9 = getelementptr inbounds nuw %struct.HeapTupleHeaderData, ptr %8, i32 0, i32 4
  %10 = load i8, ptr %9, align 2
  %11 = zext i8 %10 to i32
  %12 = sext i32 %11 to i64
  %13 = getelementptr inbounds i8, ptr %5, i64 %12
  ret ptr %13
}

; Function Attrs: nounwind uwtable
define internal void @AlterSubscriptionOwner_internal(ptr noundef %0, ptr noundef %1, i32 noundef %2) #0 {
  %4 = alloca ptr, align 8
  %5 = alloca ptr, align 8
  %6 = alloca i32, align 4
  %7 = alloca ptr, align 8
  %8 = alloca i32, align 4
  %9 = alloca i32, align 4
  store ptr %0, ptr %4, align 8
  store ptr %1, ptr %5, align 8
  store i32 %2, ptr %6, align 4
  call void @llvm.lifetime.start.p0(i64 8, ptr %7) #10
  call void @llvm.lifetime.start.p0(i64 4, ptr %8) #10
  %10 = load ptr, ptr %5, align 8
  %11 = call ptr @GETSTRUCT(ptr noundef %10)
  store ptr %11, ptr %7, align 8
  %12 = load ptr, ptr %7, align 8
  %13 = getelementptr inbounds nuw %struct.FormData_pg_subscription, ptr %12, i32 0, i32 4
  %14 = load i32, ptr %13, align 8
  %15 = load i32, ptr %6, align 4
  %16 = icmp eq i32 %14, %15
  br i1 %16, label %17, label %18

17:                                               ; preds = %3
  store i32 1, ptr %9, align 4
  br label %86

18:                                               ; preds = %3
  %19 = load ptr, ptr %7, align 8
  %20 = getelementptr inbounds nuw %struct.FormData_pg_subscription, ptr %19, i32 0, i32 0
  %21 = load i32, ptr %20, align 8
  %22 = call i32 @GetUserId()
  %23 = call zeroext i1 @object_ownercheck(i32 noundef 6100, i32 noundef %21, i32 noundef %22)
  br i1 %23, label %29, label %24

24:                                               ; preds = %18
  %25 = load ptr, ptr %7, align 8
  %26 = getelementptr inbounds nuw %struct.FormData_pg_subscription, ptr %25, i32 0, i32 3
  %27 = getelementptr inbounds nuw %struct.nameData, ptr %26, i32 0, i32 0
  %28 = getelementptr inbounds [64 x i8], ptr %27, i64 0, i64 0
  call void @aclcheck_error(i32 noundef 2, i32 noundef 38, ptr noundef %28)
  br label %29

29:                                               ; preds = %24, %18
  %30 = load ptr, ptr %7, align 8
  %31 = getelementptr inbounds nuw %struct.FormData_pg_subscription, ptr %30, i32 0, i32 10
  %32 = load i8, ptr %31, align 1, !range !4, !noundef !5
  %33 = trunc i8 %32 to i1
  br i1 %33, label %49, label %34

34:                                               ; preds = %29
  %35 = call zeroext i1 @superuser()
  br i1 %35, label %49, label %36

36:                                               ; preds = %34
  br label %37

37:                                               ; preds = %36
  br i1 true, label %38, label %40

38:                                               ; preds = %37
  %39 = call zeroext i1 @errstart_cold(i32 noundef 21, ptr noundef null) #11
  br i1 %39, label %42, label %46

40:                                               ; preds = %37
  %41 = call zeroext i1 @errstart(i32 noundef 21, ptr noundef null)
  br i1 %41, label %42, label %46

42:                                               ; preds = %40, %38
  %43 = call i32 @errcode(i32 noundef 16797828)
  %44 = call i32 (ptr, ...) @errmsg(ptr noundef @.str.5)
  %45 = call i32 (ptr, ...) @errhint(ptr noundef @.str.6)
  call void @errfinish(ptr noundef @.str.4, i32 noundef 1990, ptr noundef @__func__.AlterSubscriptionOwner_internal)
  br label %46

46:                                               ; preds = %42, %40, %38
  unreachable

47:                                               ; No predecessors!
  br label %48

48:                                               ; preds = %47
  br label %49

49:                                               ; preds = %48, %34, %29
  %50 = call i32 @GetUserId()
  %51 = load i32, ptr %6, align 4
  call void @check_can_set_role(i32 noundef %50, i32 noundef %51)
  %52 = load i32, ptr @MyDatabaseId, align 4
  %53 = call i32 @GetUserId()
  %54 = call i32 @object_aclcheck(i32 noundef 1262, i32 noundef %52, i32 noundef %53, i64 noundef 512)
  store i32 %54, ptr %8, align 4
  %55 = load i32, ptr %8, align 4
  %56 = icmp ne i32 %55, 0
  br i1 %56, label %57, label %61

57:                                               ; preds = %49
  %58 = load i32, ptr %8, align 4
  %59 = load i32, ptr @MyDatabaseId, align 4
  %60 = call ptr @get_database_name(i32 noundef %59)
  call void @aclcheck_error(i32 noundef %58, i32 noundef 9, ptr noundef %60)
  br label %61

61:                                               ; preds = %57, %49
  %62 = load i32, ptr %6, align 4
  %63 = load ptr, ptr %7, align 8
  %64 = getelementptr inbounds nuw %struct.FormData_pg_subscription, ptr %63, i32 0, i32 4
  store i32 %62, ptr %64, align 8
  %65 = load ptr, ptr %4, align 8
  %66 = load ptr, ptr %5, align 8
  %67 = getelementptr inbounds nuw %struct.HeapTupleData, ptr %66, i32 0, i32 1
  %68 = load ptr, ptr %5, align 8
  call void @CatalogTupleUpdate(ptr noundef %65, ptr noundef %67, ptr noundef %68)
  %69 = load ptr, ptr %7, align 8
  %70 = getelementptr inbounds nuw %struct.FormData_pg_subscription, ptr %69, i32 0, i32 0
  %71 = load i32, ptr %70, align 8
  %72 = load i32, ptr %6, align 4
  call void @changeDependencyOnOwner(i32 noundef 6100, i32 noundef %71, i32 noundef %72)
  br label %73

73:                                               ; preds = %61
  %74 = load ptr, ptr @object_access_hook, align 8
  %75 = icmp ne ptr %74, null
  br i1 %75, label %76, label %80

76:                                               ; preds = %73
  %77 = load ptr, ptr %7, align 8
  %78 = getelementptr inbounds nuw %struct.FormData_pg_subscription, ptr %77, i32 0, i32 0
  %79 = load i32, ptr %78, align 8
  call void @RunObjectPostAlterHook(i32 noundef 6100, i32 noundef %79, i32 noundef 0, i32 noundef 0, i1 noundef zeroext false)
  br label %80

80:                                               ; preds = %76, %73
  br label %81

81:                                               ; preds = %80
  br label %82

82:                                               ; preds = %81
  call void @ApplyLauncherWakeupAtCommit()
  %83 = load ptr, ptr %7, align 8
  %84 = getelementptr inbounds nuw %struct.FormData_pg_subscription, ptr %83, i32 0, i32 0
  %85 = load i32, ptr %84, align 8
  call void @LogicalRepWorkersWakeupAtCommit(i32 noundef %85)
  store i32 0, ptr %9, align 4
  br label %86

86:                                               ; preds = %82, %17
  call void @llvm.lifetime.end.p0(i64 4, ptr %8) #10
  call void @llvm.lifetime.end.p0(i64 8, ptr %7) #10
  %87 = load i32, ptr %9, align 4
  switch i32 %87, label %89 [
    i32 0, label %88
    i32 1, label %88
  ]

88:                                               ; preds = %86, %86
  ret void

89:                                               ; preds = %86
  unreachable
}