; Function Attrs: nounwind uwtable
define internal fastcc void @AlterSubscriptionOwner_internal(ptr noundef %0, ptr noundef nonnull %1, i32 noundef %2) unnamed_addr #0 {
  %4 = getelementptr i8, ptr %1, i64 16
  %.val = load ptr, ptr %4, align 8
  %5 = getelementptr inbounds nuw i8, ptr %.val, i64 22
  %6 = load i8, ptr %5, align 2
  %7 = zext i8 %6 to i64
  %8 = getelementptr inbounds nuw i8, ptr %.val, i64 %7
  %9 = getelementptr inbounds nuw i8, ptr %8, i64 80
  %10 = load i32, ptr %9, align 8
  %11 = icmp eq i32 %10, %2
  br i1 %11, label %45, label %12

12:                                               ; preds = %3
  %13 = load i32, ptr %8, align 8
  %14 = tail call i32 @GetUserId() #10
  %15 = tail call zeroext i1 @object_ownercheck(i32 noundef 6100, i32 noundef %13, i32 noundef %14) #10
  br i1 %15, label %18, label %16

16:                                               ; preds = %12
  %17 = getelementptr inbounds nuw i8, ptr %8, i64 16
  tail call void @aclcheck_error(i32 noundef 2, i32 noundef 38, ptr noundef nonnull %17) #10
  br label %18

18:                                               ; preds = %16, %12
  %19 = getelementptr inbounds nuw i8, ptr %8, i64 89
  %20 = load i8, ptr %19, align 1, !range !4, !noundef !5
  %21 = trunc nuw i8 %20 to i1
  br i1 %21, label %29, label %22

22:                                               ; preds = %18
  %23 = tail call zeroext i1 @superuser() #10
  br i1 %23, label %29, label %24

24:                                               ; preds = %22
  %25 = tail call zeroext i1 @errstart_cold(i32 noundef 21, ptr noundef null) #11
  tail call void @llvm.assume(i1 %25)
  %26 = tail call i32 @errcode(i32 noundef 16797828) #10
  %27 = tail call i32 (ptr, ...) @errmsg(ptr noundef nonnull @.str.5) #10
  %28 = tail call i32 (ptr, ...) @errhint(ptr noundef nonnull @.str.6) #10
  tail call void @errfinish(ptr noundef nonnull @.str.4, i32 noundef 1990, ptr noundef nonnull @__func__.AlterSubscriptionOwner_internal) #10
  unreachable

29:                                               ; preds = %22, %18
  %30 = tail call i32 @GetUserId() #10
  tail call void @check_can_set_role(i32 noundef %30, i32 noundef %2) #10
  %31 = load i32, ptr @MyDatabaseId, align 4
  %32 = tail call i32 @GetUserId() #10
  %33 = tail call i32 @object_aclcheck(i32 noundef 1262, i32 noundef %31, i32 noundef %32, i64 noundef 512) #10
  %.not = icmp eq i32 %33, 0
  br i1 %.not, label %37, label %34

34:                                               ; preds = %29
  %35 = load i32, ptr @MyDatabaseId, align 4
  %36 = tail call ptr @get_database_name(i32 noundef %35) #10
  tail call void @aclcheck_error(i32 noundef %33, i32 noundef 9, ptr noundef %36) #10
  br label %37

37:                                               ; preds = %34, %29
  store i32 %2, ptr %9, align 8
  %38 = getelementptr inbounds nuw i8, ptr %1, i64 4
  tail call void @CatalogTupleUpdate(ptr noundef %0, ptr noundef nonnull %38, ptr noundef nonnull %1) #10
  %39 = load i32, ptr %8, align 8
  tail call void @changeDependencyOnOwner(i32 noundef 6100, i32 noundef %39, i32 noundef %2) #10
  %40 = load ptr, ptr @object_access_hook, align 8
  %.not18 = icmp eq ptr %40, null
  br i1 %.not18, label %43, label %41

41:                                               ; preds = %37
  %42 = load i32, ptr %8, align 8
  tail call void @RunObjectPostAlterHook(i32 noundef 6100, i32 noundef %42, i32 noundef 0, i32 noundef 0, i1 noundef zeroext false) #10
  br label %43

43:                                               ; preds = %41, %37
  tail call void @ApplyLauncherWakeupAtCommit() #10
  %44 = load i32, ptr %8, align 8
  tail call void @LogicalRepWorkersWakeupAtCommit(i32 noundef %44) #10
  br label %45

45:                                               ; preds = %3, %43
  ret void
}